; Function Attrs: mustprogress uwtable
define void @_ZN3gmx24TrajectoryAnalysisModule11startFramesERKNS_27AnalysisDataParallelOptionsERKNS_19SelectionCollectionE(ptr dead_on_unwind noalias writable writeonly sret(%"class.std::unique_ptr") align 8 captures(none) %0, ptr noundef nonnull align 8 dereferenceable(16) %1, ptr noundef nonnull align 1 %2, ptr noundef nonnull align 1 %3) unnamed_addr #2 align 2 personality ptr @__gxx_personality_v0 {
  %5 = tail call noalias noundef nonnull dereferenceable(16) ptr @_Znwm(i64 noundef 16) #27
  store ptr getelementptr inbounds nuw inrange(-16, 24) (i8, ptr @_ZTVN3gmx28TrajectoryAnalysisModuleDataE, i64 16), ptr %5, align 8, !tbaa !4
  %6 = invoke noalias noundef nonnull dereferenceable(56) ptr @_Znwm(i64 noundef 56) #27
          to label %.noexc unwind label %11

.noexc:                                           ; preds = %4
  invoke void @_ZN3gmx28TrajectoryAnalysisModuleData4ImplC1EPNS_24TrajectoryAnalysisModuleERKNS_27AnalysisDataParallelOptionsERKNS_19SelectionCollectionE(ptr noundef nonnull align 8 dereferenceable(56) %6, ptr noundef nonnull %1, ptr noundef nonnull align 1 %2, ptr noundef nonnull align 1 %3)
          to label %9 unwind label %7

7:                                                ; preds = %.noexc
  %8 = landingpad { ptr, i32 }
          cleanup
  tail call void @_ZdlPvm(ptr noundef nonnull %6, i64 noundef 56) #28
  br label %.body

9:                                                ; preds = %.noexc
  %10 = getelementptr inbounds nuw i8, ptr %5, i64 8
  store ptr %6, ptr %10, align 8, !tbaa !7
  store ptr getelementptr inbounds nuw inrange(-16, 24) (i8, ptr @_ZTVN3gmx12_GLOBAL__N_133TrajectoryAnalysisModuleDataBasicE, i64 16), ptr %5, align 8, !tbaa !4
  store ptr %5, ptr %0, align 8, !tbaa !11
  ret void

11:                                               ; preds = %4
  %12 = landingpad { ptr, i32 }
          cleanup
  br label %.body

.body:                                            ; preds = %7, %11
  %eh.lpad-body = phi { ptr, i32 } [ %12, %11 ], [ %8, %7 ]
  tail call void @_ZdlPvm(ptr noundef nonnull %5, i64 noundef 16) #28
  resume { ptr, i32 } %eh.lpad-body
}